target datalayout = "e-m:e-p270:32:32-p271:32:32-p272:64:64-i64:64-i128:128-f80:128-n8:16:32:64-S128"
target triple = "x86_64-pc-linux-gnu"

%struct.LZ4F_CustomMem = type { ptr, ptr, ptr, ptr }
%struct.LZ4F_frameInfo_t = type { i32, i32, i32, i32, i64, i32, i32 }
%struct.XXH32_state_s = type { i32, i32, i32, i32, i32, i32, [4 x i32], i32, i32 }
%struct.LZ4F_dctx_s = type { %struct.LZ4F_CustomMem, %struct.LZ4F_frameInfo_t, i32, i32, i64, i64, i64, ptr, i64, i64, ptr, ptr, i64, ptr, i64, i64, %struct.XXH32_state_s, %struct.XXH32_state_s, i32, [19 x i8] }

; Function Attrs: nounwind uwtable
define i64 @LZ4F_decompress_usingDict(ptr noundef %0, ptr noundef %1, ptr noundef %2, ptr noundef %3, ptr noundef %4, ptr noundef %5, i64 noundef %6, ptr noundef %7) #0 {
  %9 = alloca ptr, align 8
  %10 = alloca ptr, align 8
  %11 = alloca ptr, align 8
  %12 = alloca ptr, align 8
  %13 = alloca ptr, align 8
  %14 = alloca ptr, align 8
  %15 = alloca i64, align 8
  %16 = alloca ptr, align 8
  store ptr %0, ptr %9, align 8, !tbaa !75
  store ptr %1, ptr %10, align 8, !tbaa !12
  store ptr %2, ptr %11, align 8, !tbaa !88
  store ptr %3, ptr %12, align 8, !tbaa !12
  store ptr %4, ptr %13, align 8, !tbaa !88
  store ptr %5, ptr %14, align 8, !tbaa !12
  store i64 %6, ptr %15, align 8, !tbaa !3
  store ptr %7, ptr %16, align 8, !tbaa !12
  %17 = load ptr, ptr %9, align 8, !tbaa !75
  %18 = getelementptr inbounds nuw %struct.LZ4F_dctx_s, ptr %17, i32 0, i32 3
  %19 = load i32, ptr %18, align 4, !tbaa !81
  %20 = icmp ule i32 %19, 2
  br i1 %20, label %21, label %28

21:                                               ; preds = %8
  %22 = load ptr, ptr %14, align 8, !tbaa !12
  %23 = load ptr, ptr %9, align 8, !tbaa !75
  %24 = getelementptr inbounds nuw %struct.LZ4F_dctx_s, ptr %23, i32 0, i32 11
  store ptr %22, ptr %24, align 8, !tbaa !84
  %25 = load i64, ptr %15, align 8, !tbaa !3
  %26 = load ptr, ptr %9, align 8, !tbaa !75
  %27 = getelementptr inbounds nuw %struct.LZ4F_dctx_s, ptr %26, i32 0, i32 12
  store i64 %25, ptr %27, align 8, !tbaa !85
  br label %28

28:                                               ; preds = %21, %8
  %29 = load ptr, ptr %9, align 8, !tbaa !75
  %30 = load ptr, ptr %10, align 8, !tbaa !12
  %31 = load ptr, ptr %11, align 8, !tbaa !88
  %32 = load ptr, ptr %12, align 8, !tbaa !12
  %33 = load ptr, ptr %13, align 8, !tbaa !88
  %34 = load ptr, ptr %16, align 8, !tbaa !12
  %35 = call i64 @LZ4F_decompress(ptr noundef %29, ptr noundef %30, ptr noundef %31, ptr noundef %32, ptr noundef %33, ptr noundef %34)
  ret i64 %35
}