; Function Attrs: nounwind uwtable
define i64 @LZ4F_decompress_usingDict(ptr noundef %0, ptr noundef %1, ptr noundef captures(none) %2, ptr noundef %3, ptr noundef captures(none) %4, ptr noundef %5, i64 noundef %6, ptr noundef captures(address_is_null) %7) local_unnamed_addr #5 {
  %9 = getelementptr inbounds nuw i8, ptr %0, i64 68
  %10 = load i32, ptr %9, align 4, !tbaa !72
  %11 = icmp ult i32 %10, 3
  br i1 %11, label %12, label %15

12:                                               ; preds = %8
  %13 = getelementptr inbounds nuw i8, ptr %0, i64 128
  store ptr %5, ptr %13, align 8, !tbaa !93
  %14 = getelementptr inbounds nuw i8, ptr %0, i64 136
  store i64 %6, ptr %14, align 8, !tbaa !92
  br label %15

15:                                               ; preds = %12, %8
  %16 = tail call i64 @LZ4F_decompress(ptr noundef nonnull %0, ptr noundef %1, ptr noundef %2, ptr noundef %3, ptr noundef %4, ptr noundef %7)
  ret i64 %16
}